; Function Attrs: mustprogress nofree norecurse nosync nounwind willreturn memory(write, argmem: read, inaccessiblemem: none) uwtable
define void @_ZNK5Yosys3AST9AstModule10loadconfigEv(ptr nocapture noundef nonnull readonly align 8 dereferenceable(579) %0) local_unnamed_addr #15 align 2 {
  store ptr null, ptr @_ZN5Yosys12AST_INTERNAL11current_astE, align 8
  store i8 0, ptr @_ZN5Yosys12AST_INTERNAL14flag_dump_ast1E, align 1
  store i8 0, ptr @_ZN5Yosys12AST_INTERNAL14flag_dump_ast2E, align 1
  store i8 0, ptr @_ZN5Yosys12AST_INTERNAL15flag_dump_vlog1E, align 1
  store i8 0, ptr @_ZN5Yosys12AST_INTERNAL15flag_dump_vlog2E, align 1
  %2 = getelementptr inbounds i8, ptr %0, i64 568
  %3 = load i8, ptr %2, align 8
  %4 = and i8 %3, 1
  store i8 %4, ptr @_ZN5Yosys12AST_INTERNAL14flag_nolatchesE, align 1
  %5 = getelementptr inbounds i8, ptr %0, i64 569
  %6 = load i8, ptr %5, align 1
  %7 = and i8 %6, 1
  store i8 %7, ptr @_ZN5Yosys12AST_INTERNAL14flag_nomeminitE, align 1
  %8 = getelementptr inbounds i8, ptr %0, i64 570
  %9 = load i8, ptr %8, align 2
  %10 = and i8 %9, 1
  store i8 %10, ptr @_ZN5Yosys12AST_INTERNAL14flag_nomem2regE, align 1
  %11 = getelementptr inbounds i8, ptr %0, i64 571
  %12 = load i8, ptr %11, align 1
  %13 = and i8 %12, 1
  store i8 %13, ptr @_ZN5Yosys12AST_INTERNAL12flag_mem2regE, align 1
  %14 = getelementptr inbounds i8, ptr %0, i64 572
  %15 = load i8, ptr %14, align 4
  %16 = and i8 %15, 1
  store i8 %16, ptr @_ZN5Yosys12AST_INTERNAL15flag_noblackboxE, align 1
  %17 = getelementptr inbounds i8, ptr %0, i64 573
  %18 = load i8, ptr %17, align 1
  %19 = and i8 %18, 1
  store i8 %19, ptr @_ZN5Yosys12AST_INTERNAL8flag_libE, align 1
  %20 = getelementptr inbounds i8, ptr %0, i64 574
  %21 = load i8, ptr %20, align 2
  %22 = and i8 %21, 1
  store i8 %22, ptr @_ZN5Yosys12AST_INTERNAL9flag_nowbE, align 1
  %23 = getelementptr inbounds i8, ptr %0, i64 575
  %24 = load i8, ptr %23, align 1
  %25 = and i8 %24, 1
  store i8 %25, ptr @_ZN5Yosys12AST_INTERNAL10flag_nooptE, align 1
  %26 = getelementptr inbounds i8, ptr %0, i64 576
  %27 = load i8, ptr %26, align 8
  %28 = and i8 %27, 1
  store i8 %28, ptr @_ZN5Yosys12AST_INTERNAL11flag_icellsE, align 1
  %29 = getelementptr inbounds i8, ptr %0, i64 577
  %30 = load i8, ptr %29, align 1
  %31 = and i8 %30, 1
  store i8 %31, ptr @_ZN5Yosys12AST_INTERNAL11flag_pwiresE, align 1
  %32 = getelementptr inbounds i8, ptr %0, i64 578
  %33 = load i8, ptr %32, align 2
  %34 = and i8 %33, 1
  store i8 %34, ptr @_ZN5Yosys12AST_INTERNAL13flag_autowireE, align 1
  ret void
}